target datalayout = "e-m:e-p270:32:32-p271:32:32-p272:64:64-i64:64-i128:128-f80:128-n8:16:32:64-S128"
target triple = "x86_64-pc-linux-gnu"

%struct.ossl_param_st = type { ptr, i32, ptr, i64, i64 }
%struct.PROV_RSA_CTX = type { ptr, ptr, i32 }
%struct.ossl_item_st = type { i32, ptr }

@.str.3 = private unnamed_addr constant [10 x i8] c"operation\00", align 1
@rsakem_opname_id_map = internal constant [1 x { i32, [4 x i8], ptr }] [{ i32, [4 x i8], ptr } { i32 0, [4 x i8] zeroinitializer, ptr @.str.4 }], align 16

; Function Attrs: nounwind uwtable
define internal i32 @name2id(ptr noundef %0, ptr noundef %1, i64 noundef %2) #0 {
  %4 = alloca i32, align 4
  %5 = alloca ptr, align 8
  %6 = alloca ptr, align 8
  %7 = alloca i64, align 8
  %8 = alloca i64, align 8
  %9 = alloca i32, align 4
  store ptr %0, ptr %5, align 8, !tbaa !15
  store ptr %1, ptr %6, align 8, !tbaa !34
  store i64 %2, ptr %7, align 8, !tbaa !19
  call void @llvm.lifetime.start.p0(i64 8, ptr %8) #5
  %10 = load ptr, ptr %5, align 8, !tbaa !15
  %11 = icmp eq ptr %10, null
  br i1 %11, label %12, label %13

12:                                               ; preds = %3
  store i32 -1, ptr %4, align 4
  store i32 1, ptr %9, align 4
  br label %38

13:                                               ; preds = %3
  store i64 0, ptr %8, align 8, !tbaa !19
  br label %14

14:                                               ; preds = %34, %13
  %15 = load i64, ptr %8, align 8, !tbaa !19
  %16 = load i64, ptr %7, align 8, !tbaa !19
  %17 = icmp ult i64 %15, %16
  br i1 %17, label %18, label %37

18:                                               ; preds = %14
  %19 = load ptr, ptr %6, align 8, !tbaa !34
  %20 = load i64, ptr %8, align 8, !tbaa !19
  %21 = getelementptr inbounds nuw %struct.ossl_item_st, ptr %19, i64 %20
  %22 = getelementptr inbounds nuw %struct.ossl_item_st, ptr %21, i32 0, i32 1
  %23 = load ptr, ptr %22, align 8, !tbaa !36
  %24 = load ptr, ptr %5, align 8, !tbaa !15
  %25 = call i32 @OPENSSL_strcasecmp(ptr noundef %23, ptr noundef %24)
  %26 = icmp eq i32 %25, 0
  br i1 %26, label %27, label %33

27:                                               ; preds = %18
  %28 = load ptr, ptr %6, align 8, !tbaa !34
  %29 = load i64, ptr %8, align 8, !tbaa !19
  %30 = getelementptr inbounds nuw %struct.ossl_item_st, ptr %28, i64 %29
  %31 = getelementptr inbounds nuw %struct.ossl_item_st, ptr %30, i32 0, i32 0
  %32 = load i32, ptr %31, align 8, !tbaa !38
  store i32 %32, ptr %4, align 4
  store i32 1, ptr %9, align 4
  br label %38

33:                                               ; preds = %18
  br label %34

34:                                               ; preds = %33
  %35 = load i64, ptr %8, align 8, !tbaa !19
  %36 = add i64 %35, 1
  store i64 %36, ptr %8, align 8, !tbaa !19
  br label %14, !llvm.loop !39

37:                                               ; preds = %14
  store i32 -1, ptr %4, align 4
  store i32 1, ptr %9, align 4
  br label %38

38:                                               ; preds = %37, %27, %12
  call void @llvm.lifetime.end.p0(i64 8, ptr %8) #5
  %39 = load i32, ptr %4, align 4
  ret i32 %39
}

; Function Attrs: nounwind uwtable
define internal i32 @rsakem_opname2id(ptr noundef %0) #0 {
  %2 = alloca ptr, align 8
  store ptr %0, ptr %2, align 8, !tbaa !15
  %3 = load ptr, ptr %2, align 8, !tbaa !15
  %4 = call i32 @name2id(ptr noundef %3, ptr noundef @rsakem_opname_id_map, i64 noundef 1)
  ret i32 %4
}

; Function Attrs: inlinehint nounwind uwtable
define internal i32 @ossl_param_is_empty(ptr noundef %0) #4 {
  %2 = alloca ptr, align 8
  store ptr %0, ptr %2, align 8, !tbaa !13
  %3 = load ptr, ptr %2, align 8, !tbaa !13
  %4 = icmp eq ptr %3, null
  br i1 %4, label %10, label %5

5:                                                ; preds = %1
  %6 = load ptr, ptr %2, align 8, !tbaa !13
  %7 = getelementptr inbounds nuw %struct.ossl_param_st, ptr %6, i32 0, i32 0
  %8 = load ptr, ptr %7, align 8, !tbaa !33
  %9 = icmp eq ptr %8, null
  br label %10

10:                                               ; preds = %5, %1
  %11 = phi i1 [ true, %1 ], [ %9, %5 ]
  %12 = zext i1 %11 to i32
  ret i32 %12
}

; Function Attrs: nounwind uwtable
define internal i32 @rsakem_set_ctx_params(ptr noundef %0, ptr noundef %1) #0 {
  %3 = alloca i32, align 4
  %4 = alloca ptr, align 8
  %5 = alloca ptr, align 8
  %6 = alloca ptr, align 8
  %7 = alloca ptr, align 8
  %8 = alloca i32, align 4
  %9 = alloca i32, align 4
  store ptr %0, ptr %4, align 8, !tbaa !3
  store ptr %1, ptr %5, align 8, !tbaa !13
  call void @llvm.lifetime.start.p0(i64 8, ptr %6) #5
  %10 = load ptr, ptr %4, align 8, !tbaa !3
  store ptr %10, ptr %6, align 8, !tbaa !3
  call void @llvm.lifetime.start.p0(i64 8, ptr %7) #5
  call void @llvm.lifetime.start.p0(i64 4, ptr %8) #5
  %11 = load ptr, ptr %6, align 8, !tbaa !3
  %12 = icmp eq ptr %11, null
  br i1 %12, label %13, label %14

13:                                               ; preds = %2
  store i32 0, ptr %3, align 4
  store i32 1, ptr %9, align 4
  br label %43

14:                                               ; preds = %2
  %15 = load ptr, ptr %5, align 8, !tbaa !13
  %16 = call i32 @ossl_param_is_empty(ptr noundef %15)
  %17 = icmp ne i32 %16, 0
  br i1 %17, label %18, label %19

18:                                               ; preds = %14
  store i32 1, ptr %3, align 4
  store i32 1, ptr %9, align 4
  br label %43

19:                                               ; preds = %14
  %20 = load ptr, ptr %5, align 8, !tbaa !13
  %21 = call ptr @OSSL_PARAM_locate_const(ptr noundef %20, ptr noundef @.str.3)
  store ptr %21, ptr %7, align 8, !tbaa !13
  %22 = load ptr, ptr %7, align 8, !tbaa !13
  %23 = icmp ne ptr %22, null
  br i1 %23, label %24, label %42

24:                                               ; preds = %19
  %25 = load ptr, ptr %7, align 8, !tbaa !13
  %26 = getelementptr inbounds nuw %struct.ossl_param_st, ptr %25, i32 0, i32 1
  %27 = load i32, ptr %26, align 8, !tbaa !26
  %28 = icmp ne i32 %27, 4
  br i1 %28, label %29, label %30

29:                                               ; preds = %24
  store i32 0, ptr %3, align 4
  store i32 1, ptr %9, align 4
  br label %43

30:                                               ; preds = %24
  %31 = load ptr, ptr %7, align 8, !tbaa !13
  %32 = getelementptr inbounds nuw %struct.ossl_param_st, ptr %31, i32 0, i32 2
  %33 = load ptr, ptr %32, align 8, !tbaa !28
  %34 = call i32 @rsakem_opname2id(ptr noundef %33)
  store i32 %34, ptr %8, align 4, !tbaa !25
  %35 = load i32, ptr %8, align 4, !tbaa !25
  %36 = icmp slt i32 %35, 0
  br i1 %36, label %37, label %38

37:                                               ; preds = %30
  store i32 0, ptr %3, align 4
  store i32 1, ptr %9, align 4
  br label %43

38:                                               ; preds = %30
  %39 = load i32, ptr %8, align 4, !tbaa !25
  %40 = load ptr, ptr %6, align 8, !tbaa !3
  %41 = getelementptr inbounds nuw %struct.PROV_RSA_CTX, ptr %40, i32 0, i32 2
  store i32 %39, ptr %41, align 8, !tbaa !12
  br label %42

42:                                               ; preds = %38, %19
  store i32 1, ptr %3, align 4
  store i32 1, ptr %9, align 4
  br label %43

43:                                               ; preds = %42, %37, %29, %18, %13
  call void @llvm.lifetime.end.p0(i64 4, ptr %8) #5
  call void @llvm.lifetime.end.p0(i64 8, ptr %7) #5
  call void @llvm.lifetime.end.p0(i64 8, ptr %6) #5
  %44 = load i32, ptr %3, align 4
  ret i32 %44
}