; Function Attrs: nounwind uwtable
define internal range(i32 0, 2) i32 @rsakem_set_ctx_params(ptr noundef writeonly captures(address_is_null) %0, ptr noundef %1) #0 {
  %3 = icmp eq ptr %0, null
  br i1 %3, label %ossl_param_is_empty.exit.thread, label %4

4:                                                ; preds = %2
  %5 = icmp eq ptr %1, null
  br i1 %5, label %ossl_param_is_empty.exit.thread, label %ossl_param_is_empty.exit

ossl_param_is_empty.exit:                         ; preds = %4
  %6 = load ptr, ptr %1, align 8, !tbaa !19
  %.not = icmp eq ptr %6, null
  br i1 %.not, label %ossl_param_is_empty.exit.thread, label %7

7:                                                ; preds = %ossl_param_is_empty.exit
  %8 = tail call ptr @OSSL_PARAM_locate_const(ptr noundef nonnull %1, ptr noundef nonnull @.str.3) #5
  %.not13 = icmp eq ptr %8, null
  br i1 %.not13, label %ossl_param_is_empty.exit.thread, label %9

9:                                                ; preds = %7
  %10 = getelementptr inbounds nuw i8, ptr %8, i64 8
  %11 = load i32, ptr %10, align 8, !tbaa !22
  %.not14 = icmp eq i32 %11, 4
  br i1 %.not14, label %12, label %ossl_param_is_empty.exit.thread

12:                                               ; preds = %9
  %13 = getelementptr inbounds nuw i8, ptr %8, i64 16
  %14 = load ptr, ptr %13, align 8, !tbaa !23
  %15 = icmp eq ptr %14, null
  br i1 %15, label %ossl_param_is_empty.exit.thread, label %rsakem_opname2id.exit

rsakem_opname2id.exit:                            ; preds = %12
  %16 = tail call i32 @OPENSSL_strcasecmp(ptr noundef nonnull @.str.4, ptr noundef nonnull %14) #5
  %.not17 = icmp eq i32 %16, 0
  br i1 %.not17, label %17, label %ossl_param_is_empty.exit.thread

17:                                               ; preds = %rsakem_opname2id.exit
  %18 = getelementptr inbounds nuw i8, ptr %0, i64 16
  store i32 0, ptr %18, align 8, !tbaa !11
  br label %ossl_param_is_empty.exit.thread

ossl_param_is_empty.exit.thread:                  ; preds = %12, %4, %7, %17, %rsakem_opname2id.exit, %9, %ossl_param_is_empty.exit, %2
  %.0 = phi i32 [ 0, %2 ], [ 1, %ossl_param_is_empty.exit ], [ 0, %9 ], [ 0, %rsakem_opname2id.exit ], [ 1, %17 ], [ 1, %7 ], [ 1, %4 ], [ 0, %12 ]
  ret i32 %.0
}